; Function Attrs: mustprogress nounwind uwtable
define dso_local range(i16 0, 258) i16 @_ZN5clang11isUncountedEPKNS_13CXXRecordDeclE(ptr noundef nonnull %0) local_unnamed_addr #0 {
  %2 = tail call noundef zeroext i1 @_ZN5clang12isRefCountedEPKNS_13CXXRecordDeclE(ptr noundef %0)
  br i1 %2, label %8, label %3

3:                                                ; preds = %1
  %4 = tail call i16 @_ZN5clang14isRefCountableEPKNS_13CXXRecordDeclE(ptr noundef nonnull %0)
  %.not = icmp ult i16 %4, 256
  %5 = and i16 %4, 1
  %6 = or disjoint i16 %5, 256
  %7 = select i1 %.not, i16 0, i16 %6
  br label %8

8:                                                ; preds = %3, %1
  %.sroa.02.0.insert.insert = phi i16 [ 256, %1 ], [ %7, %3 ]
  ret i16 %.sroa.02.0.insert.insert
}